target datalayout = "e-m:e-p270:32:32-p271:32:32-p272:64:64-i64:64-i128:128-f80:128-n8:16:32:64-S128"
target triple = "x86_64-pc-linux-gnu"

; Function Attrs: alwaysinline nounwind willreturn memory(none) uwtable
define internal i32 @av_clip_uintp2_c(i32 noundef %0, i32 noundef %1) #3 {
  %3 = alloca i32, align 4
  %4 = alloca i32, align 4
  %5 = alloca i32, align 4
  store i32 %0, ptr %4, align 4, !tbaa !9
  store i32 %1, ptr %5, align 4, !tbaa !9
  %6 = load i32, ptr %4, align 4, !tbaa !9
  %7 = load i32, ptr %5, align 4, !tbaa !9
  %8 = shl i32 1, %7
  %9 = sub i32 %8, 1
  %10 = xor i32 %9, -1
  %11 = and i32 %6, %10
  %12 = icmp ne i32 %11, 0
  br i1 %12, label %13, label %21

13:                                               ; preds = %2
  %14 = load i32, ptr %4, align 4, !tbaa !9
  %15 = xor i32 %14, -1
  %16 = ashr i32 %15, 31
  %17 = load i32, ptr %5, align 4, !tbaa !9
  %18 = shl i32 1, %17
  %19 = sub i32 %18, 1
  %20 = and i32 %16, %19
  store i32 %20, ptr %3, align 4
  br label %23

21:                                               ; preds = %2
  %22 = load i32, ptr %4, align 4, !tbaa !9
  store i32 %22, ptr %3, align 4
  br label %23

23:                                               ; preds = %21, %13
  %24 = load i32, ptr %3, align 4
  ret i32 %24
}

; Function Attrs: nounwind uwtable
define internal void @put_gpm_12(ptr noundef %0, i64 noundef %1, i32 noundef %2, i32 noundef %3, ptr noundef %4, ptr noundef %5, ptr noundef %6, i32 noundef %7, i32 noundef %8) #0 {
  %10 = alloca ptr, align 8
  %11 = alloca i64, align 8
  %12 = alloca i32, align 4
  %13 = alloca i32, align 4
  %14 = alloca ptr, align 8
  %15 = alloca ptr, align 8
  %16 = alloca ptr, align 8
  %17 = alloca i32, align 4
  %18 = alloca i32, align 4
  %19 = alloca i32, align 4
  %20 = alloca i32, align 4
  %21 = alloca ptr, align 8
  %22 = alloca i32, align 4
  %23 = alloca i32, align 4
  %24 = alloca i32, align 4
  %25 = alloca i8, align 1
  store ptr %0, ptr %10, align 8, !tbaa !144
  store i64 %1, ptr %11, align 8, !tbaa !146
  store i32 %2, ptr %12, align 4, !tbaa !9
  store i32 %3, ptr %13, align 4, !tbaa !9
  store ptr %4, ptr %14, align 8, !tbaa !142
  store ptr %5, ptr %15, align 8, !tbaa !142
  store ptr %6, ptr %16, align 8, !tbaa !144
  store i32 %7, ptr %17, align 4, !tbaa !9
  store i32 %8, ptr %18, align 4, !tbaa !9
  call void @llvm.lifetime.start.p0(i64 4, ptr %19) #8
  store i32 5, ptr %19, align 4, !tbaa !9
  call void @llvm.lifetime.start.p0(i64 4, ptr %20) #8
  store i32 16, ptr %20, align 4, !tbaa !9
  call void @llvm.lifetime.start.p0(i64 8, ptr %21) #8
  %26 = load ptr, ptr %10, align 8, !tbaa !144
  store ptr %26, ptr %21, align 8, !tbaa !142
  %27 = load i64, ptr %11, align 8, !tbaa !146
  %28 = udiv i64 %27, 2
  store i64 %28, ptr %11, align 8, !tbaa !146
  call void @llvm.lifetime.start.p0(i64 4, ptr %22) #8
  store i32 0, ptr %22, align 4, !tbaa !9
  br label %29

29:                                               ; preds = %91, %9
  %30 = load i32, ptr %22, align 4, !tbaa !9
  %31 = load i32, ptr %13, align 4, !tbaa !9
  %32 = icmp slt i32 %30, %31
  br i1 %32, label %34, label %33

33:                                               ; preds = %29
  store i32 2, ptr %23, align 4
  call void @llvm.lifetime.end.p0(i64 4, ptr %22) #8
  br label %94

34:                                               ; preds = %29
  call void @llvm.lifetime.start.p0(i64 4, ptr %24) #8
  store i32 0, ptr %24, align 4, !tbaa !9
  br label %35

35:                                               ; preds = %76, %34
  %36 = load i32, ptr %24, align 4, !tbaa !9
  %37 = load i32, ptr %12, align 4, !tbaa !9
  %38 = icmp slt i32 %36, %37
  br i1 %38, label %40, label %39

39:                                               ; preds = %35
  store i32 5, ptr %23, align 4
  call void @llvm.lifetime.end.p0(i64 4, ptr %24) #8
  br label %79

40:                                               ; preds = %35
  call void @llvm.lifetime.start.p0(i64 1, ptr %25) #8
  %41 = load ptr, ptr %16, align 8, !tbaa !144
  %42 = load i32, ptr %24, align 4, !tbaa !9
  %43 = load i32, ptr %17, align 4, !tbaa !9
  %44 = mul nsw i32 %42, %43
  %45 = sext i32 %44 to i64
  %46 = getelementptr inbounds i8, ptr %41, i64 %45
  %47 = load i8, ptr %46, align 1, !tbaa !152
  store i8 %47, ptr %25, align 1, !tbaa !152
  %48 = load ptr, ptr %14, align 8, !tbaa !142
  %49 = load i32, ptr %24, align 4, !tbaa !9
  %50 = sext i32 %49 to i64
  %51 = getelementptr inbounds i16, ptr %48, i64 %50
  %52 = load i16, ptr %51, align 2, !tbaa !148
  %53 = sext i16 %52 to i32
  %54 = load i8, ptr %25, align 1, !tbaa !152
  %55 = zext i8 %54 to i32
  %56 = mul nsw i32 %53, %55
  %57 = load ptr, ptr %15, align 8, !tbaa !142
  %58 = load i32, ptr %24, align 4, !tbaa !9
  %59 = sext i32 %58 to i64
  %60 = getelementptr inbounds i16, ptr %57, i64 %59
  %61 = load i16, ptr %60, align 2, !tbaa !148
  %62 = sext i16 %61 to i32
  %63 = load i8, ptr %25, align 1, !tbaa !152
  %64 = zext i8 %63 to i32
  %65 = sub nsw i32 8, %64
  %66 = mul nsw i32 %62, %65
  %67 = add nsw i32 %56, %66
  %68 = add nsw i32 %67, 16
  %69 = ashr i32 %68, 5
  %70 = call i32 @av_clip_uintp2_c(i32 noundef %69, i32 noundef 12) #9
  %71 = trunc i32 %70 to i16
  %72 = load ptr, ptr %21, align 8, !tbaa !142
  %73 = load i32, ptr %24, align 4, !tbaa !9
  %74 = sext i32 %73 to i64
  %75 = getelementptr inbounds i16, ptr %72, i64 %74
  store i16 %71, ptr %75, align 2, !tbaa !148
  call void @llvm.lifetime.end.p0(i64 1, ptr %25) #8
  br label %76

76:                                               ; preds = %40
  %77 = load i32, ptr %24, align 4, !tbaa !9
  %78 = add nsw i32 %77, 1
  store i32 %78, ptr %24, align 4, !tbaa !9
  br label %35, !llvm.loop !219

79:                                               ; preds = %39
  %80 = load i64, ptr %11, align 8, !tbaa !146
  %81 = load ptr, ptr %21, align 8, !tbaa !142
  %82 = getelementptr inbounds i16, ptr %81, i64 %80
  store ptr %82, ptr %21, align 8, !tbaa !142
  %83 = load ptr, ptr %14, align 8, !tbaa !142
  %84 = getelementptr inbounds i16, ptr %83, i64 128
  store ptr %84, ptr %14, align 8, !tbaa !142
  %85 = load ptr, ptr %15, align 8, !tbaa !142
  %86 = getelementptr inbounds i16, ptr %85, i64 128
  store ptr %86, ptr %15, align 8, !tbaa !142
  %87 = load i32, ptr %18, align 4, !tbaa !9
  %88 = load ptr, ptr %16, align 8, !tbaa !144
  %89 = sext i32 %87 to i64
  %90 = getelementptr inbounds i8, ptr %88, i64 %89
  store ptr %90, ptr %16, align 8, !tbaa !144
  br label %91

91:                                               ; preds = %79
  %92 = load i32, ptr %22, align 4, !tbaa !9
  %93 = add nsw i32 %92, 1
  store i32 %93, ptr %22, align 4, !tbaa !9
  br label %29, !llvm.loop !220

94:                                               ; preds = %33
  call void @llvm.lifetime.end.p0(i64 8, ptr %21) #8
  call void @llvm.lifetime.end.p0(i64 4, ptr %20) #8
  call void @llvm.lifetime.end.p0(i64 4, ptr %19) #8
  ret void
}