; Function Attrs: nofree norecurse nosync nounwind memory(argmem: readwrite) uwtable
define internal void @put_gpm_12(ptr noundef writeonly captures(none) %0, i64 noundef %1, i32 noundef %2, i32 noundef %3, ptr noundef readonly captures(none) %4, ptr noundef readonly captures(none) %5, ptr noundef readonly captures(none) %6, i32 noundef %7, i32 noundef %8) #2 {
  %10 = lshr i64 %1, 1
  %11 = icmp sgt i32 %3, 0
  br i1 %11, label %.preheader.lr.ph, label %._crit_edge35

.preheader.lr.ph:                                 ; preds = %9
  %12 = icmp sgt i32 %2, 0
  %13 = sext i32 %8 to i64
  br i1 %12, label %.preheader.us.preheader, label %._crit_edge35

.preheader.us.preheader:                          ; preds = %.preheader.lr.ph
  %14 = sext i32 %7 to i64
  %wide.trip.count = zext nneg i32 %2 to i64
  br label %.preheader.us

.preheader.us:                                    ; preds = %.preheader.us.preheader, %._crit_edge.us
  %.02434.us = phi i32 [ %40, %._crit_edge.us ], [ 0, %.preheader.us.preheader ]
  %.02533.us = phi ptr [ %36, %._crit_edge.us ], [ %0, %.preheader.us.preheader ]
  %.02632.us = phi ptr [ %37, %._crit_edge.us ], [ %4, %.preheader.us.preheader ]
  %.02731.us = phi ptr [ %38, %._crit_edge.us ], [ %5, %.preheader.us.preheader ]
  %.02830.us = phi ptr [ %39, %._crit_edge.us ], [ %6, %.preheader.us.preheader ]
  br label %15

15:                                               ; preds = %.preheader.us, %15
  %indvars.iv = phi i64 [ 0, %.preheader.us ], [ %indvars.iv.next, %15 ]
  %16 = mul nsw i64 %indvars.iv, %14
  %17 = getelementptr inbounds i8, ptr %.02830.us, i64 %16
  %18 = load i8, ptr %17, align 1, !tbaa !128
  %19 = getelementptr inbounds nuw i16, ptr %.02632.us, i64 %indvars.iv
  %20 = load i16, ptr %19, align 2, !tbaa !124
  %21 = sext i16 %20 to i32
  %22 = zext i8 %18 to i32
  %23 = mul nsw i32 %21, %22
  %24 = getelementptr inbounds nuw i16, ptr %.02731.us, i64 %indvars.iv
  %25 = load i16, ptr %24, align 2, !tbaa !124
  %26 = sext i16 %25 to i32
  %27 = sub nsw i32 8, %22
  %28 = mul nsw i32 %27, %26
  %29 = add nsw i32 %23, 16
  %30 = add nsw i32 %29, %28
  %31 = ashr i32 %30, 5
  %32 = tail call i32 @llvm.smax.i32(i32 %31, i32 0)
  %33 = tail call i32 @llvm.umin.i32(i32 %32, i32 4095)
  %34 = trunc nuw nsw i32 %33 to i16
  %35 = getelementptr inbounds nuw i16, ptr %.02533.us, i64 %indvars.iv
  store i16 %34, ptr %35, align 2, !tbaa !124
  %indvars.iv.next = add nuw nsw i64 %indvars.iv, 1
  %exitcond.not = icmp eq i64 %indvars.iv.next, %wide.trip.count
  br i1 %exitcond.not, label %._crit_edge.us, label %15, !llvm.loop !203

._crit_edge.us:                                   ; preds = %15
  %36 = getelementptr inbounds nuw i16, ptr %.02533.us, i64 %10
  %37 = getelementptr inbounds nuw i8, ptr %.02632.us, i64 256
  %38 = getelementptr inbounds nuw i8, ptr %.02731.us, i64 256
  %39 = getelementptr inbounds i8, ptr %.02830.us, i64 %13
  %40 = add nuw nsw i32 %.02434.us, 1
  %exitcond38.not = icmp eq i32 %40, %3
  br i1 %exitcond38.not, label %._crit_edge35, label %.preheader.us, !llvm.loop !204

._crit_edge35:                                    ; preds = %._crit_edge.us, %.preheader.lr.ph, %9
  ret void
}